target datalayout = "e-m:e-p270:32:32-p271:32:32-p272:64:64-i64:64-i128:128-f80:128-n8:16:32:64-S128"
target triple = "x86_64-pc-linux-gnu"

%class.BigInteger = type { i32, %class.BigUnsigned }
%class.BigUnsigned = type { %class.NumberlikeArray }
%class.NumberlikeArray = type { i32, i32, ptr }

; Function Attrs: mustprogress nounwind uwtable
define internal noundef i64 @_ZN12_GLOBAL__N_15magOfIstEEmT_(i16 noundef signext %0) #1 {
  %2 = alloca i16, align 2
  store i16 %0, ptr %2, align 2, !tbaa !30
  %3 = load i16, ptr %2, align 2, !tbaa !30
  %4 = sext i16 %3 to i32
  %5 = icmp slt i32 %4, 0
  br i1 %5, label %6, label %12

6:                                                ; preds = %1
  %7 = load i16, ptr %2, align 2, !tbaa !30
  %8 = sext i16 %7 to i32
  %9 = sub nsw i32 0, %8
  %10 = trunc i32 %9 to i16
  %11 = zext i16 %10 to i32
  br label %15

12:                                               ; preds = %1
  %13 = load i16, ptr %2, align 2, !tbaa !30
  %14 = sext i16 %13 to i32
  br label %15

15:                                               ; preds = %12, %6
  %16 = phi i32 [ %11, %6 ], [ %14, %12 ]
  %17 = sext i32 %16 to i64
  ret i64 %17
}

; Function Attrs: mustprogress nounwind uwtable
define internal noundef i32 @_ZN12_GLOBAL__N_16signOfIsEEN10BigInteger4SignET_(i16 noundef signext %0) #1 {
  %2 = alloca i16, align 2
  store i16 %0, ptr %2, align 2, !tbaa !30
  %3 = load i16, ptr %2, align 2, !tbaa !30
  %4 = sext i16 %3 to i32
  %5 = icmp eq i32 %4, 0
  br i1 %5, label %6, label %7

6:                                                ; preds = %1
  br label %12

7:                                                ; preds = %1
  %8 = load i16, ptr %2, align 2, !tbaa !30
  %9 = sext i16 %8 to i32
  %10 = icmp sgt i32 %9, 0
  %11 = select i1 %10, i32 1, i32 -1
  br label %12

12:                                               ; preds = %7, %6
  %13 = phi i32 [ 0, %6 ], [ %11, %7 ]
  ret i32 %13
}

; Function Attrs: mustprogress uwtable
define void @_ZN10BigIntegerC2Es(ptr noundef nonnull align 8 dereferenceable(24) %0, i16 noundef signext %1) unnamed_addr #0 align 2 {
  %3 = alloca ptr, align 8
  %4 = alloca i16, align 2
  store ptr %0, ptr %3, align 8, !tbaa !6
  store i16 %1, ptr %4, align 2, !tbaa !30
  %5 = load ptr, ptr %3, align 8
  %6 = getelementptr inbounds nuw %class.BigInteger, ptr %5, i32 0, i32 0
  %7 = load i16, ptr %4, align 2, !tbaa !30
  %8 = call noundef i32 @_ZN12_GLOBAL__N_16signOfIsEEN10BigInteger4SignET_(i16 noundef signext %7)
  store i32 %8, ptr %6, align 8, !tbaa !11
  %9 = getelementptr inbounds nuw %class.BigInteger, ptr %5, i32 0, i32 1
  %10 = load i16, ptr %4, align 2, !tbaa !30
  %11 = call noundef i64 @_ZN12_GLOBAL__N_15magOfIstEEmT_(i16 noundef signext %10)
  call void @_ZN11BigUnsignedC1Em(ptr noundef nonnull align 8 dereferenceable(16) %9, i64 noundef %11)
  ret void
}