; Function Attrs: mustprogress uwtable
define void @_ZN10BigIntegerC2Es(ptr noundef nonnull align 8 dereferenceable(24) initializes((0, 4)) %0, i16 noundef signext %1) unnamed_addr #0 align 2 {
  %3 = tail call noundef range(i32 -1, 2) i32 @llvm.scmp.i32.i16(i16 %1, i16 0)
  store i32 %3, ptr %0, align 8, !tbaa !6
  %4 = getelementptr inbounds nuw i8, ptr %0, i64 8
  %.v.i = tail call i16 @llvm.abs.i16(i16 %1, i1 false)
  %5 = zext i16 %.v.i to i64
  tail call void @_ZN11BigUnsignedC1Em(ptr noundef nonnull align 8 dereferenceable(16) %4, i64 noundef %5)
  ret void
}